; ModuleID = '44/1107.c'
source_filename = "44/1107.c"
target datalayout = "e-m:e-p270:32:32-p271:32:32-p272:64:64-i64:64-f80:128-n8:16:32:64-S128"
target triple = "x86_64-pc-linux-gnu"

@.str = private unnamed_addr constant [3 x i8] c"%d\00", align 1
@.str.1 = private unnamed_addr constant [4 x i8] c"%d\0A\00", align 1

; Function Attrs: noinline nounwind uwtable
define dso_local i32 @reverse(i32 %0) #0 {
  %2 = alloca i32, align 4
  %3 = alloca i32, align 4
  %4 = alloca i32, align 4
  store i32 %0, i32* %2, align 4
  store i32 0, i32* %3, align 4
  %5 = load i32, i32* %2, align 4
  store i32 %5, i32* %4, align 4
  %6 = load i32, i32* %4, align 4
  %7 = icmp sgt i32 %6, 0
  br i1 %7, label %8, label %21

8:                                                ; preds = %1
  br label %9

9:                                                ; preds = %12, %8
  %10 = load i32, i32* %4, align 4
  %11 = icmp ne i32 %10, 0
  br i1 %11, label %12, label %20

12:                                               ; preds = %9
  %13 = load i32, i32* %3, align 4
  %14 = mul nsw i32 %13, 10
  %15 = load i32, i32* %4, align 4
  %16 = srem i32 %15, 10
  %17 = add nsw i32 %14, %16
  store i32 %17, i32* %3, align 4
  %18 = load i32, i32* %4, align 4
  %19 = sdiv i32 %18, 10
  store i32 %19, i32* %4, align 4
  br label %9

20:                                               ; preds = %9
  br label %43

21:                                               ; preds = %1
  %22 = load i32, i32* %4, align 4
  %23 = icmp slt i32 %22, 0
  br i1 %23, label %24, label %41

24:                                               ; preds = %21
  %25 = load i32, i32* %4, align 4
  %26 = mul nsw i32 %25, -1
  store i32 %26, i32* %4, align 4
  br label %27

27:                                               ; preds = %30, %24
  %28 = load i32, i32* %4, align 4
  %29 = icmp ne i32 %28, 0
  br i1 %29, label %30, label %38

30:                                               ; preds = %27
  %31 = load i32, i32* %3, align 4
  %32 = mul nsw i32 %31, 10
  %33 = load i32, i32* %4, align 4
  %34 = srem i32 %33, 10
  %35 = add nsw i32 %32, %34
  store i32 %35, i32* %3, align 4
  %36 = load i32, i32* %4, align 4
  %37 = sdiv i32 %36, 10
  store i32 %37, i32* %4, align 4
  br label %27

38:                                               ; preds = %27
  %39 = load i32, i32* %3, align 4
  %40 = mul nsw i32 %39, -1
  store i32 %40, i32* %3, align 4
  br label %42

41:                                               ; preds = %21
  br label %42

42:                                               ; preds = %41, %38
  br label %43

43:                                               ; preds = %42, %20
  %44 = load i32, i32* %3, align 4
  ret i32 %44
}

; Function Attrs: noinline nounwind uwtable
define dso_local i32 @main() #0 {
  %1 = alloca i32, align 4
  %2 = alloca i32, align 4
  %3 = alloca i32, align 4
  store i32 0, i32* %1, align 4
  store i32 1, i32* %2, align 4
  br label %4

4:                                                ; preds = %12, %0
  %5 = load i32, i32* %2, align 4
  %6 = icmp sle i32 %5, 6
  br i1 %6, label %7, label %15

7:                                                ; preds = %4
  %8 = call i32 (i8*, ...) @__isoc99_scanf(i8* getelementptr inbounds ([3 x i8], [3 x i8]* @.str, i64 0, i64 0), i32* %3)
  %9 = load i32, i32* %3, align 4
  %10 = call i32 @reverse(i32 %9)
  %11 = call i32 (i8*, ...) @printf(i8* getelementptr inbounds ([4 x i8], [4 x i8]* @.str.1, i64 0, i64 0), i32 %10)
  br label %12

12:                                               ; preds = %7
  %13 = load i32, i32* %2, align 4
  %14 = add nsw i32 %13, 1
  store i32 %14, i32* %2, align 4
  br label %4

15:                                               ; preds = %4
  %16 = call i32 @getchar()
  %17 = call i32 @getchar()
  %18 = load i32, i32* %1, align 4
  ret i32 %18
}

declare dso_local i32 @__isoc99_scanf(i8*, ...) #1

declare dso_local i32 @printf(i8*, ...) #1

declare dso_local i32 @getchar() #1


!llvm.module.flags = !{!0}
!llvm.ident = !{!1}

!0 = !{i32 1, !"wchar_size", i32 4}
!1 = !{!"clang version 10.0.0-4ubuntu1 "}
